(dp1
S'r_u'
p2
cnumpy.core.multiarray
_reconstruct
p3
(cnumpy
ndarray
p4
(I0
tS'b'
tRp5
(I1
(L3L
L15L
tcnumpy
dtype
p6
(S'f8'
I0
I1
tRp7
(I3
S'<'
NNNI-1
I-1
I0
tbI00
S'\xfd\x1d\xd3_Q\x04\xba\xbf\x8c\xbe\xeaG\xb5\xc9\x8c\xbfz\x90\xd8\xea~\x0c\x93?u)%\xe2\xee\xee\xac?\xd6)\x82=T\x94\xa4\xbf\xa3%\x80\xbc\x99}\xaa\xbf\x02t? \x01\xde\xb2\xbf\x01\x9e\xf6\xd4\xc1\x85\xb5\xbfV\xe5}\xd2\xb2\xf9\x9c?i;\xb7\xdc\x82\x0b\xb5\xbf\xe7\xed\xe2\x85\xe4\x98\xc3\xbf>\x0c7S\x1cQ\xb8\xbf3\xd2\xe3\xd2s\xfd\xc1\xbf\x19ga\xf6\x02\x0e\xb7?\x89\xa7\xc2\xf0\x1d\xab\x94?\xe6%\xa5\x8e\xe0\x05\xa7\xbf@#\x95\xf9~P\x94\xbf\x93\x0b\xad\xf2\xba\xd3\xa6\xbf\x00\xf5\x81\x13\x10\xf2\xbe\xbfn\x9e\xeeo{\xbf\xbb\xbf\x14\x17z\xc3\xb9\xfa\xc2?\x13\xa4q+o\x16\xa2\xbf~-\xd0~\xba\xde\x95\xbf\xd4\xfae\x1d\xb6\xe0S\xbf\x1b\xee\xf6)\x1e\x9f\xb7?\xb5\x91\xbc\xe3\xdc3\xc2?`ZKa\xa2\xb0\xa3\xbf\x9aB\x04\xee\xe1\xd3\xc6?\xfb\xe2\xb2\x98\xe4\x19\xa4?\xa6\xa67:\xf4\xb8\x91?P\xb1\xd9\xad\x98\xd8\xa8\xbf\x88\xa1\xf3\xb7f\xce\x83\xbf\x88\xf8i\x93\xe6\x07\xc3\xbfs\x80\xa2I\x98\x91\xc0?\x82u\xbaO\xb8q\xb7\xbfO\xb3"\xb4}d\xbb\xbf\xbfDnKZ^`?\xacB\xb0s\xc4V\xa1\xbf\xab\xf5\x02)\x84F\xaa\xbf\xeba\xe7\xe5\x950\xc9?\xc3\xa8:\x97)i\xb6?>\xea\x1e\xcd\x16\xa7|?T;+\xf0\x12\xa7\xb4\xbf\xee \xd0B\xea\xd0\xad\xbf\x1e\xef\xa0Z\xa1\xdd\xcb\xbf'
tbsS'r_v'
p8
g3
(g4
(I0
tS'b'
tRp9
(I1
(L3L
L15L
tg7
I00
S'X\x8c\x00\xf6\xf1\x1bd?\x03\x9c\x188\x1d\x90\xc1\xbf\xdc\xc5\xb4\xa0\xe3\xd6\xb9\xbf"R\x97\xc2\x8c\xc4\x8c?\x06\xce\xed\x8c\xa4\xf2\xa6?#\x0f2\x88\x9e\x02\xb6\xbf\x01\xae\x88\x05^\x99\xb6\xbf.\x90u\xa8T\xdc\xb2\xbffK/g\x8ce\xbe?u\xcd\xfa\x04\x7f\x9fd?\xcb|81\x0c7\xb2\xbf\x00\xd1\xd2\x03\x8b\xb7\xb7\xbfh=(\x8c\x96)\xb1?A5<d\xdeH\xb9\xbf\x10\x8d\xaeX\xd4\xf3\x9a\xbfG\xab\xac\x13P\xbe\x91\xbf\xda+mL\x94\xc4\xb6?\xabb\x97]\xc3\xba\xab\xbf\x7fgPT\xdf\xb3\xb5\xbf33\xf0\x1e}(\xa3?\x83\x92\xabVc1\xb9\xbf\x9c.\xd1\xc4\x93|\xb1\xbf\xb7\xf2cZ\x14(\xbf??\x10wivj\xa3\xbf\x99\x92k5\x00C\xa6\xbf\xcf\xb7\'\xa4\x94\xb5\x85?\xed\x86JE\x83E\xbe?F\xdc\xde\x86\xd8\xe6\xbd?\x85-x\x1f\xa3\'\xa9?\x7f<\xefe\xd3^\xb6?r\xf7\xba\xb2\xb7\x8e\xb4?jmLO\xc5\x9c\xce?7\x14\x8b\x06\xfb.\xb2\xbfG8U\xc3\xff\xb3\x84\xbf\x8fm\x0b#B\x89\xbe?g\x88\xeeA>\tb?)YY\xfc\x10\x89\xc1?(\xea\xe4g7\x03\xb4?\x83\x91\x83\x104\x03\x96?\xdc\x14\xbc\xb4\x02"\xac\xbf\x12y}\xc2*\xb9\xb2?\xe2\x07vL\xd4c\xc1?\xf6\xae\xeb\x87\x97P\xb2\xbf\xd0\xed!:\t\x9b\x9d\xbf[\xc9\x0e\x87\x02\xc8\xa7?'
tbsS'u'
(dp10
I0
g3
(g4
(I0
tS'b'
tRp11
(I1
(L15L
tg7
I00
S'\xcf\xe3<\xd0\xb4I]\xbf\xdc&\xdfPr\xd28?E\x8f\x9b\xba\xcbd&\xbf\xbe\xe1E\xd9\x8eE\x85?\xbd\xceH\xe1\x1c\xaec?$N\xb6b\xdf\xe0\x86\xbf\x0c\x9ce\xb1\x8e.;\xbfAQ\x15\x84#\x9da\xbf\x9a)(\xb3V\xbf\x1c\xbf\x8af\x01\xba>%j\xbf*l3\x19\xbc\x8f\x84\xbf~h\x96\xa5\xbdGJ\xbf\x10\xc4\xd4c\xe1g\x8e\xbf\x06\x86[T\x9d ;\xbfE\xd2#\x8f\xe9\xebr\xbf'
tbsI1
g11
sI2
g11
sI3
g11
sI4
g11
sI5
g11
sI6
g11
sI7
g11
sI8
g11
sI9
g11
sI10
g11
sI11
g11
sI12
g11
sI13
g11
sI14
g11
sI15
g11
sI16
g11
sI17
g11
sI18
g11
sI19
g11
sI20
g11
sI21
g11
sI22
g11
sI23
g11
sI24
g11
sI25
g11
sI26
g11
sI27
g11
sI28
g11
sI29
g11
sI30
g11
sI31
g11
sI32
g11
sI33
g11
sI34
g11
sI35
g11
sI36
g11
sI37
g11
sI38
g11
sI39
g11
sI40
g11
sI41
g11
sI42
g11
sI43
g11
sI44
g11
sI45
g11
sI46
g11
sI47
g11
sI48
g11
sI49
g11
sI50
g11
sI51
g11
sI52
g11
sI53
g11
sI54
g11
sI55
g11
sI56
g11
sI57
g11
sI58
g11
sI59
g11
sI60
g11
sI61
g11
sI62
g11
sI63
g11
sI64
g11
sI65
g11
sI66
g11
sI67
g11
sI68
g11
sI69
g11
sI70
g11
sI71
g11
sI72
g11
sI73
g11
sI74
g11
sI75
g11
sI76
g11
sI77
g11
sI78
g11
sI79
g11
sI80
g11
sI81
g11
sI82
g11
sI83
g11
sI84
g11
sI85
g11
sI86
g11
sI87
g11
sI88
g11
sI89
g11
sI90
g11
sI91
g11
sI92
g11
sI93
g11
sI94
g11
sI95
g11
sI96
g11
sI97
g11
sI98
g11
sI99
g11
sI100
g11
sI101
g11
sI102
g11
sI103
g11
sI104
g11
sI105
g11
sI106
g11
sI107
g11
sI108
g11
sI109
g11
sI110
g11
sI111
g11
sI112
g11
sI113
g11
sI114
g11
sI115
g11
sI116
g11
sI117
g11
sI118
g11
sI119
g11
sI120
g11
sI121
g11
sI122
g11
sI123
g11
sI124
g11
sI125
g11
sI126
g11
sI127
g11
sI128
g11
sI129
g11
sI130
g11
sI131
g11
sI132
g11
sI133
g11
sI134
g11
sI135
g11
sI136
g11
sI137
g11
sI138
g11
sI139
g11
sI140
g11
sI141
g11
sI142
g11
sI143
g11
sI144
g11
sI145
g11
sI146
g11
sI147
g11
sI148
g11
sI149
g11
sI150
g11
sI151
g11
sI152
g11
sI153
g11
sI154
g11
sI155
g11
sI156
g11
sI157
g11
sI158
g11
sI159
g11
sI160
g11
sI161
g11
sI162
g11
sI163
g11
sI164
g11
sI165
g11
sI166
g11
sI167
g11
sI168
g11
sI169
g11
sI170
g11
sI171
g11
sI172
g11
sI173
g11
sI174
g11
sI175
g11
sI176
g11
sI177
g11
sI178
g11
sI179
g11
sI180
g11
sI181
g11
sI182
g11
sI183
g11
sI184
g11
sI185
g11
sI186
g11
sI187
g11
sI188
g11
sI189
g11
sI190
g11
sI191
g11
sI192
g11
sI193
g11
sI194
g11
sI195
g11
sI196
g11
sI197
g11
sI198
g11
sI199
g11
sI200
g11
sI201
g11
sI202
g11
sI203
g11
sI204
g11
sI205
g11
sI206
g11
sI207
g11
sI208
g11
sI209
g11
sI210
g11
sI211
g11
sI212
g11
sI213
g11
sI214
g11
sI215
g11
sI216
g11
sI217
g11
sI218
g11
sI219
g11
sI220
g11
sI221
g11
sI222
g11
sI223
g11
sI224
g11
sI225
g11
sI226
g11
sI227
g11
sI228
g11
sI229
g11
sI230
g11
sI231
g11
sI232
g11
sI233
g11
sI234
g11
sI235
g11
sI236
g11
sI237
g11
sI238
g11
sI239
g11
sI240
g11
sI241
g11
sI242
g11
sI243
g11
sI244
g11
sI245
g11
sI246
g11
sI247
g11
sI248
g11
sI249
g11
sI250
g11
sI251
g11
sI252
g11
sI253
g11
sI254
g11
sI255
g11
sI256
g11
sI257
g11
sI258
g11
sI259
g11
sI260
g11
sI261
g11
sI262
g11
sI263
g11
sI264
g11
sI265
g11
sI266
g11
sI267
g11
sI268
g11
sI269
g11
sI270
g11
sI271
g11
sI272
g11
sI273
g11
sI274
g11
sI275
g11
sI276
g11
sI277
g11
sI278
g11
sI279
g11
sI280
g11
sI281
g11
sI282
g11
sI283
g11
sI284
g11
sI285
g11
sI286
g11
sI287
g11
sI288
g11
sI289
g11
sI290
g11
sI291
g11
sI292
g11
sI293
g11
sI294
g11
sI295
g11
sI296
g11
sI297
g11
sI298
g11
sI299
g11
sI300
g11
sI301
g11
sI302
g11
sI303
g11
sI304
g11
sI305
g11
sI306
g11
sI307
g11
sI308
g11
sI309
g11
sI310
g11
sI311
g11
sI312
g11
sI313
g11
sI314
g11
sI315
g11
sI316
g11
sI317
g11
sI318
g11
sI319
g11
sI320
g11
sI321
g11
sI322
g11
sI323
g11
sI324
g11
sI325
g11
sI326
g11
sI327
g11
sI328
g11
sI329
g11
sI330
g11
sI331
g11
sI332
g11
sI333
g11
sI334
g11
sI335
g11
sI336
g11
sI337
g11
sI338
g11
sI339
g11
sI340
g11
sI341
g11
sI342
g11
sI343
g11
sI344
g11
sI345
g11
sI346
g11
sI347
g11
sI348
g11
sI349
g11
sI350
g11
sI351
g11
sI352
g11
sI353
g11
sI354
g11
sI355
g11
sI356
g11
sI357
g11
sI358
g11
sI359
g11
sI360
g11
sI361
g11
sI362
g11
sI363
g11
sI364
g11
sI365
g11
sI366
g11
sI367
g11
sI368
g11
sI369
g11
sI370
g11
sI371
g11
sI372
g11
sI373
g11
sI374
g11
sI375
g11
sI376
g11
sI377
g11
sI378
g11
sI379
g11
sI380
g11
sI381
g11
sI382
g11
sI383
g11
sI384
g11
sI385
g11
sI386
g11
sI387
g11
sI388
g11
sI389
g11
sI390
g11
sI391
g11
sI392
g11
sI393
g11
sI394
g11
sI395
g11
sI396
g11
sI397
g11
sI398
g11
sI399
g11
sI400
g11
sI401
g11
sI402
g11
sI403
g11
sI404
g11
sI405
g11
sI406
g11
sI407
g11
sI408
g11
sI409
g11
sI410
g11
sI411
g11
sI412
g11
sI413
g11
sI414
g11
sI415
g11
sI416
g11
sI417
g11
sI418
g11
sI419
g11
sI420
g11
sI421
g11
sI422
g11
sI423
g11
sI424
g11
sI425
g11
sI426
g11
sI427
g11
sI428
g11
sI429
g11
sI430
g11
sI431
g11
sI432
g11
sI433
g11
sI434
g11
sI435
g11
sI436
g11
sI437
g11
sI438
g11
sI439
g11
sI440
g11
sI441
g11
sI442
g11
sI443
g11
sI444
g11
sI445
g11
sI446
g11
sI447
g11
sI448
g11
sI449
g11
sI450
g11
sI451
g11
sI452
g11
sI453
g11
sI454
g11
sI455
g11
sI456
g11
sI457
g11
sI458
g11
sI459
g11
sI460
g11
sI461
g11
sI462
g11
sI463
g11
sI464
g11
sI465
g11
sI466
g11
sI467
g11
sI468
g11
sI469
g11
sI470
g11
sI471
g11
sI472
g11
sI473
g11
sI474
g11
sI475
g11
sI476
g11
sI477
g11
sI478
g11
sI479
g11
sI480
g11
sI481
g11
sI482
g11
sI483
g11
sI484
g11
sI485
g11
sI486
g11
sI487
g11
sI488
g11
sI489
g11
sI490
g11
sI491
g11
sI492
g11
sI493
g11
sI494
g11
sI495
g11
sI496
g11
sI497
g11
sI498
g11
sI499
g11
ssS'v'
(dp12
I0
g3
(g4
(I0
tS'b'
tRp13
(I1
(L15L
tg7
I00
S"\x97\xa8\xf4\xcc/\xedd?'\xc8\xab\x1b\x01xo\xbf\x06\xc6\xe3x\xc7\xbf\\\xbf\xc6\x91\x14\x18\xc7br?N\xcdN\x1f\r\x89^?{\xd1\x8e\xd6\x84\x97c?,\xeb\x1ejS\xbal?\x03\xd4\x07\x82\xb1\xcf{\xbf\x1c~\xea3~Ox?\xfc\x8a\xb6\x0b~\x10S?+_\x07\xa2\x00\rT\xbfM\xcf\xd2\xbdb\xb8x\xbf\xcd\xf7\xbeS\xe3\x9fu\xbf.\xcf\xcf a\xc0x\xbf\xeb\xf6M\xec\x1cwq\xbf"
tbsI1
g13
sI2
g13
sI3
g13
sI4
g13
sI5
g13
sI6
g13
sI7
g13
sI8
g13
sI9
g13
sI10
g13
sI11
g13
sI12
g13
sI13
g13
sI14
g13
sI15
g13
sI16
g13
sI17
g13
sI18
g13
sI19
g13
sI20
g13
sI21
g13
sI22
g13
sI23
g13
sI24
g13
sI25
g13
sI26
g13
sI27
g13
sI28
g13
sI29
g13
sI30
g13
sI31
g13
sI32
g13
sI33
g13
sI34
g13
sI35
g13
sI36
g13
sI37
g13
sI38
g13
sI39
g13
sI40
g13
sI41
g13
sI42
g13
sI43
g13
sI44
g13
sI45
g13
sI46
g13
sI47
g13
sI48
g13
sI49
g13
sI50
g13
sI51
g13
sI52
g13
sI53
g13
sI54
g13
sI55
g13
sI56
g13
sI57
g13
sI58
g13
sI59
g13
sI60
g13
sI61
g13
sI62
g13
sI63
g13
sI64
g13
sI65
g13
sI66
g13
sI67
g13
sI68
g13
sI69
g13
sI70
g13
sI71
g13
sI72
g13
sI73
g13
sI74
g13
sI75
g13
sI76
g13
sI77
g13
sI78
g13
sI79
g13
sI80
g13
sI81
g13
sI82
g13
sI83
g13
sI84
g13
sI85
g13
sI86
g13
sI87
g13
sI88
g13
sI89
g13
sI90
g13
sI91
g13
sI92
g13
sI93
g13
sI94
g13
sI95
g13
sI96
g13
sI97
g13
sI98
g13
sI99
g13
sI100
g13
sI101
g13
sI102
g13
sI103
g13
sI104
g13
sI105
g13
sI106
g13
sI107
g13
sI108
g13
sI109
g13
sI110
g13
sI111
g13
sI112
g13
sI113
g13
sI114
g13
sI115
g13
sI116
g13
sI117
g13
sI118
g13
sI119
g13
sI120
g13
sI121
g13
sI122
g13
sI123
g13
sI124
g13
sI125
g13
sI126
g13
sI127
g13
sI128
g13
sI129
g13
sI130
g13
sI131
g13
sI132
g13
sI133
g13
sI134
g13
sI135
g13
sI136
g13
sI137
g13
sI138
g13
sI139
g13
sI140
g13
sI141
g13
sI142
g13
sI143
g13
sI144
g13
sI145
g13
sI146
g13
sI147
g13
sI148
g13
sI149
g13
sI150
g13
sI151
g13
sI152
g13
sI153
g13
sI154
g13
sI155
g13
sI156
g13
sI157
g13
sI158
g13
sI159
g13
sI160
g13
sI161
g13
sI162
g13
sI163
g13
sI164
g13
sI165
g13
sI166
g13
sI167
g13
sI168
g13
sI169
g13
sI170
g13
sI171
g13
sI172
g13
sI173
g13
sI174
g13
sI175
g13
sI176
g13
sI177
g13
sI178
g13
sI179
g13
sI180
g13
sI181
g13
sI182
g13
sI183
g13
sI184
g13
sI185
g13
sI186
g13
sI187
g13
sI188
g13
sI189
g13
sI190
g13
sI191
g13
sI192
g13
sI193
g13
sI194
g13
sI195
g13
sI196
g13
sI197
g13
sI198
g13
sI199
g13
sI200
g13
sI201
g13
sI202
g13
sI203
g13
sI204
g13
sI205
g13
sI206
g13
sI207
g13
sI208
g13
sI209
g13
sI210
g13
sI211
g13
sI212
g13
sI213
g13
sI214
g13
sI215
g13
sI216
g13
sI217
g13
sI218
g13
sI219
g13
sI220
g13
sI221
g13
sI222
g13
sI223
g13
sI224
g13
sI225
g13
sI226
g13
sI227
g13
sI228
g13
sI229
g13
sI230
g13
sI231
g13
sI232
g13
sI233
g13
sI234
g13
sI235
g13
sI236
g13
sI237
g13
sI238
g13
sI239
g13
sI240
g13
sI241
g13
sI242
g13
sI243
g13
sI244
g13
sI245
g13
sI246
g13
sI247
g13
sI248
g13
sI249
g13
sI250
g13
sI251
g13
sI252
g13
sI253
g13
sI254
g13
sI255
g13
sI256
g13
sI257
g13
sI258
g13
sI259
g13
sI260
g13
sI261
g13
sI262
g13
sI263
g13
sI264
g13
sI265
g13
sI266
g13
sI267
g13
sI268
g13
sI269
g13
sI270
g13
sI271
g13
sI272
g13
sI273
g13
sI274
g13
sI275
g13
sI276
g13
sI277
g13
sI278
g13
sI279
g13
sI280
g13
sI281
g13
sI282
g13
sI283
g13
sI284
g13
sI285
g13
sI286
g13
sI287
g13
sI288
g13
sI289
g13
sI290
g13
sI291
g13
sI292
g13
sI293
g13
sI294
g13
sI295
g13
sI296
g13
sI297
g13
sI298
g13
sI299
g13
sI300
g13
sI301
g13
sI302
g13
sI303
g13
sI304
g13
sI305
g13
sI306
g13
sI307
g13
sI308
g13
sI309
g13
sI310
g13
sI311
g13
sI312
g13
sI313
g13
sI314
g13
sI315
g13
sI316
g13
sI317
g13
sI318
g13
sI319
g13
sI320
g13
sI321
g13
sI322
g13
sI323
g13
sI324
g13
sI325
g13
sI326
g13
sI327
g13
sI328
g13
sI329
g13
sI330
g13
sI331
g13
sI332
g13
sI333
g13
sI334
g13
sI335
g13
sI336
g13
sI337
g13
sI338
g13
sI339
g13
sI340
g13
sI341
g13
sI342
g13
sI343
g13
sI344
g13
sI345
g13
sI346
g13
sI347
g13
sI348
g13
sI349
g13
sI350
g13
sI351
g13
sI352
g13
sI353
g13
sI354
g13
sI355
g13
sI356
g13
sI357
g13
sI358
g13
sI359
g13
sI360
g13
sI361
g13
sI362
g13
sI363
g13
sI364
g13
sI365
g13
sI366
g13
sI367
g13
sI368
g13
sI369
g13
sI370
g13
sI371
g13
sI372
g13
sI373
g13
sI374
g13
sI375
g13
sI376
g13
sI377
g13
sI378
g13
sI379
g13
sI380
g13
sI381
g13
sI382
g13
sI383
g13
sI384
g13
sI385
g13
sI386
g13
sI387
g13
sI388
g13
sI389
g13
sI390
g13
sI391
g13
sI392
g13
sI393
g13
sI394
g13
sI395
g13
sI396
g13
sI397
g13
sI398
g13
sI399
g13
sI400
g13
sI401
g13
sI402
g13
sI403
g13
sI404
g13
sI405
g13
sI406
g13
sI407
g13
sI408
g13
sI409
g13
sI410
g13
sI411
g13
sI412
g13
sI413
g13
sI414
g13
sI415
g13
sI416
g13
sI417
g13
sI418
g13
sI419
g13
sI420
g13
sI421
g13
sI422
g13
sI423
g13
sI424
g13
sI425
g13
sI426
g13
sI427
g13
sI428
g13
sI429
g13
sI430
g13
sI431
g13
sI432
g13
sI433
g13
sI434
g13
sI435
g13
sI436
g13
sI437
g13
sI438
g13
sI439
g13
sI440
g13
sI441
g13
sI442
g13
sI443
g13
sI444
g13
sI445
g13
sI446
g13
sI447
g13
sI448
g13
sI449
g13
sI450
g13
sI451
g13
sI452
g13
sI453
g13
sI454
g13
sI455
g13
sI456
g13
sI457
g13
sI458
g13
sI459
g13
sI460
g13
sI461
g13
sI462
g13
sI463
g13
sI464
g13
sI465
g13
sI466
g13
sI467
g13
sI468
g13
sI469
g13
sI470
g13
sI471
g13
sI472
g13
sI473
g13
sI474
g13
sI475
g13
sI476
g13
sI477
g13
sI478
g13
sI479
g13
sI480
g13
sI481
g13
sI482
g13
sI483
g13
sI484
g13
sI485
g13
sI486
g13
sI487
g13
sI488
g13
sI489
g13
sI490
g13
sI491
g13
sI492
g13
sI493
g13
sI494
g13
sI495
g13
sI496
g13
sI497
g13
sI498
g13
sI499
g13
ssS'u_avg'
p14
g3
(g4
(I0
tS'b'
tRp15
(I1
(L15L
tg7
I00
S'\xf7\xe3<\xd0\xb4I]\xbf\xa1&\xdfPr\xd28?h\x8f\x9b\xba\xcbd&\xbf\xdb\xe1E\xd9\x8eE\x85?\xad\xceH\xe1\x1c\xaec?\tN\xb6b\xdf\xe0\x86\xbf\x01\x9ce\xb1\x8e.;\xbf>Q\x15\x84#\x9da\xbf\xdd)(\xb3V\xbf\x1c\xbfyf\x01\xba>%j\xbf\nl3\x19\xbc\x8f\x84\xbf(h\x96\xa5\xbdGJ\xbf\x01\xc4\xd4c\xe1g\x8e\xbf\x01\x86[T\x9d ;\xbf*\xd2#\x8f\xe9\xebr\xbf'
tbsS'v_avg'
p16
g3
(g4
(I0
tS'b'
tRp17
(I1
(L15L
tg7
I00
S'\x99\xa8\xf4\xcc/\xedd?\x07\xc8\xab\x1b\x01xo\xbf\x01\xc6\xe3x\xc7\xbf\\\xbf\xf2\x91\x14\x18\xc7br?\x90\xcdN\x1f\r\x89^?_\xd1\x8e\xd6\x84\x97c?v\xeb\x1ejS\xbal?\x01\xd4\x07\x82\xb1\xcf{\xbf\x03~\xea3~Ox?\xdb\x8a\xb6\x0b~\x10S?9_\x07\xa2\x00\rT\xbfw\xcf\xd2\xbdb\xb8x\xbf\xf5\xf7\xbeS\xe3\x9fu\xbf_\xcf\xcf a\xc0x\xbf\xee\xf6M\xec\x1cwq\xbf'
tbs.